; Function Attrs: mustprogress uwtable
define noundef double @_ZNK8QuantLib36AnalyticHolderExtensibleOptionEngine2y2ENS_6Option4TypeE(ptr noundef nonnull align 8 dereferenceable(376) %this, i32 noundef %type) local_unnamed_addr #8 align 2 {
entry:
  %ref.tmp.i = alloca %"class.QuantLib::Date", align 8
  %process_ = getelementptr inbounds nuw i8, ptr %this, i64 360
  %0 = load ptr, ptr %process_, align 8, !tbaa !39
  %cmp.not.i = icmp eq ptr %0, null
  br i1 %cmp.not.i, label %cond.false.i, label %_ZNK5boost10shared_ptrIN8QuantLib30GeneralizedBlackScholesProcessEEptEv.exit, !prof !46

cond.false.i:                                     ; preds = %entry
  tail call void @_ZN5boost16assertion_failedEPKcS1_S1_l(ptr noundef nonnull @.str.14, ptr noundef nonnull @__PRETTY_FUNCTION__._ZNK5boost10shared_ptrIN8QuantLib30GeneralizedBlackScholesProcessEEptEv, ptr noundef nonnull @.str.15, i64 noundef 784)
  %.pre.i = load ptr, ptr %process_, align 8, !tbaa !39
  br label %_ZNK5boost10shared_ptrIN8QuantLib30GeneralizedBlackScholesProcessEEptEv.exit

_ZNK5boost10shared_ptrIN8QuantLib30GeneralizedBlackScholesProcessEEptEv.exit: ; preds = %entry, %cond.false.i
  %1 = phi ptr [ %0, %entry ], [ %.pre.i, %cond.false.i ]
  %vtable = load ptr, ptr %1, align 8, !tbaa !35
  %vfn = getelementptr inbounds i8, ptr %vtable, i64 120
  %2 = load ptr, ptr %vfn, align 8
  %call2 = tail call noundef double %2(ptr noundef nonnull align 8 dereferenceable(250) %1)
  %cmp = icmp eq i32 %type, 1
  br i1 %cmp, label %cond.true, label %cond.false

cond.true:                                        ; preds = %_ZNK5boost10shared_ptrIN8QuantLib30GeneralizedBlackScholesProcessEEptEv.exit
  %call3 = tail call noundef double @_ZNK8QuantLib36AnalyticHolderExtensibleOptionEngine6I1CallEv(ptr noundef nonnull align 8 dereferenceable(376) %this)
  br label %cond.end

cond.false:                                       ; preds = %_ZNK5boost10shared_ptrIN8QuantLib30GeneralizedBlackScholesProcessEEptEv.exit
  %call4 = tail call noundef double @_ZNK8QuantLib36AnalyticHolderExtensibleOptionEngine5I1PutEv(ptr noundef nonnull align 8 dereferenceable(376) %this)
  br label %cond.end

cond.end:                                         ; preds = %cond.false, %cond.true
  %cond = phi double [ %call3, %cond.true ], [ %call4, %cond.false ]
  %call5 = tail call noundef double @_ZNK8QuantLib36AnalyticHolderExtensibleOptionEngine12riskFreeRateEv(ptr noundef nonnull align 8 dereferenceable(376) %this)
  %call6 = tail call noundef double @_ZNK8QuantLib36AnalyticHolderExtensibleOptionEngine13dividendYieldEv(ptr noundef nonnull align 8 dereferenceable(376) %this)
  %call7 = tail call noundef double @_ZNK8QuantLib36AnalyticHolderExtensibleOptionEngine10volatilityEv(ptr noundef nonnull align 8 dereferenceable(376) %this)
  %3 = load ptr, ptr %process_, align 8, !tbaa !39
  %cmp.not.i.i = icmp eq ptr %3, null
  br i1 %cmp.not.i.i, label %cond.false.i.i, label %_ZNK5boost10shared_ptrIN8QuantLib30GeneralizedBlackScholesProcessEEptEv.exit.i, !prof !46

cond.false.i.i:                                   ; preds = %cond.end
  tail call void @_ZN5boost16assertion_failedEPKcS1_S1_l(ptr noundef nonnull @.str.14, ptr noundef nonnull @__PRETTY_FUNCTION__._ZNK5boost10shared_ptrIN8QuantLib30GeneralizedBlackScholesProcessEEptEv, ptr noundef nonnull @.str.15, i64 noundef 784)
  %.pre.i.i = load ptr, ptr %process_, align 8, !tbaa !39
  br label %_ZNK5boost10shared_ptrIN8QuantLib30GeneralizedBlackScholesProcessEEptEv.exit.i

_ZNK5boost10shared_ptrIN8QuantLib30GeneralizedBlackScholesProcessEEptEv.exit.i: ; preds = %cond.false.i.i, %cond.end
  %4 = phi ptr [ %3, %cond.end ], [ %.pre.i.i, %cond.false.i.i ]
  call void @llvm.lifetime.start.p0(i64 8, ptr nonnull %ref.tmp.i) #26
  %exercise.i = getelementptr inbounds nuw i8, ptr %this, i64 136
  %5 = load ptr, ptr %exercise.i, align 8, !tbaa !73
  %cmp.not.i1.i = icmp eq ptr %5, null
  br i1 %cmp.not.i1.i, label %cond.false.i2.i, label %_ZNK8QuantLib36AnalyticHolderExtensibleOptionEngine15firstExpiryTimeEv.exit, !prof !46

cond.false.i2.i:                                  ; preds = %_ZNK5boost10shared_ptrIN8QuantLib30GeneralizedBlackScholesProcessEEptEv.exit.i
  tail call void @_ZN5boost16assertion_failedEPKcS1_S1_l(ptr noundef nonnull @.str.14, ptr noundef nonnull @__PRETTY_FUNCTION__._ZNK5boost10shared_ptrIN8QuantLib8ExerciseEEptEv, ptr noundef nonnull @.str.15, i64 noundef 784)
  %.pre.i3.i = load ptr, ptr %exercise.i, align 8, !tbaa !73
  br label %_ZNK8QuantLib36AnalyticHolderExtensibleOptionEngine15firstExpiryTimeEv.exit

_ZNK8QuantLib36AnalyticHolderExtensibleOptionEngine15firstExpiryTimeEv.exit: ; preds = %_ZNK5boost10shared_ptrIN8QuantLib30GeneralizedBlackScholesProcessEEptEv.exit.i, %cond.false.i2.i
  %6 = phi ptr [ %5, %_ZNK5boost10shared_ptrIN8QuantLib30GeneralizedBlackScholesProcessEEptEv.exit.i ], [ %.pre.i3.i, %cond.false.i2.i ]
  %sub = fsub double %call5, %call6
  %call3.i = tail call i64 @_ZNK8QuantLib8Exercise8lastDateEv(ptr noundef nonnull align 8 dereferenceable(36) %6)
  store i64 %call3.i, ptr %ref.tmp.i, align 8
  %vtable.i = load ptr, ptr %4, align 8, !tbaa !35
  %vfn.i = getelementptr inbounds i8, ptr %vtable.i, i64 112
  %7 = load ptr, ptr %vfn.i, align 8
  %call4.i = call noundef double %7(ptr noundef nonnull align 8 dereferenceable(250) %4, ptr noundef nonnull align 8 dereferenceable(8) %ref.tmp.i)
  call void @llvm.lifetime.end.p0(i64 8, ptr nonnull %ref.tmp.i) #26
  %div = fdiv double %call2, %cond
  %call9 = call double @log(double noundef %div) #26, !tbaa !75
  %square = fmul double %call7, %call7
  %div11 = fmul double %square, 5.000000e-01
  %add = fadd double %sub, %div11
  %8 = call double @llvm.fmuladd.f64(double %add, double %call4.i, double %call9)
  %call12 = call double @sqrt(double noundef %call4.i) #26, !tbaa !75
  %mul = fmul double %call7, %call12
  %div13 = fdiv double %8, %mul
  ret double %div13
}